Certificate:
    Data:
        Version: 3 (0x2)
        Serial Number: 16582080088954381212 (0xe61f61fc3b34239c)
    Signature Algorithm: sha256WithRSAEncryption
        Issuer: C=US, ST=Maryland, L=Forest Hill, O=The Apache Software Foundation, OU=Apache Thrift, CN=localhost/emailAddress=dev@thrift.apache.org
        Validity
            Not Before: Oct  8 08:58:03 2019 GMT
            Not After : Dec 29 08:58:06 2049 GMT
        Subject: C=US, ST=Maryland, L=Forest Hill, O=The Apache Software Foundation, OU=Apache Thrift, CN=localhost/emailAddress=dev@thrift.apache.org
        Subject Public Key Info:
            Public Key Algorithm: rsaEncryption
                Public-Key: (2048 bit)
                Modulus:
                    00:aa:13:d4:c4:f7:01:17:a7:92:d1:b4:b4:15:0d:
                    21:90:19:5e:fc:fb:b6:6d:3f:f2:3f:65:a2:7a:43:
                    a6:46:95:fc:43:16:f6:63:14:5e:f7:b1:e3:61:02:
                    f9:4a:95:89:bf:8d:f9:48:1d:82:e7:34:e0:b2:48:
                    df:08:d9:7c:3a:2f:d3:1b:0b:e8:ef:c2:41:0a:7d:
                    0a:38:78:3a:31:66:73:99:8c:d1:79:27:5f:e5:66:
                    d0:5e:3a:8c:0c:92:18:73:04:c1:f5:45:db:37:e7:
                    5f:c7:8c:a3:60:e9:92:a0:d8:29:5d:77:48:fb:1d:
                    b0:ed:12:2c:4e:2e:02:db:3d:1a:41:71:a6:2b:2e:
                    b3:4c:6a:c7:f7:1d:a9:7e:c7:cf:db:f2:e7:b6:f3:
                    1f:77:1d:24:01:1a:66:66:30:85:30:02:29:c4:bb:
                    f7:cd:3f:89:4b:1a:5f:f4:91:96:fb:e9:39:f2:46:
                    96:12:3d:8a:23:b5:2e:82:9e:41:fe:40:b6:27:b1:
                    14:44:5c:96:30:0f:55:e4:bb:ad:8b:8a:99:17:c0:
                    29:11:4e:76:79:9d:4b:03:31:7e:85:3c:a8:23:40:
                    54:02:58:35:c6:fc:dd:3d:eb:e3:d1:51:00:02:86:
                    1a:d7:b0:9f:a0:17:73:6a:5a:d0:e6:b6:b8:55:40:
                    5e:27
                Exponent: 65537 (0x10001)
        X509v3 extensions:
            X509v3 Subject Key Identifier: 
                28:F2:FD:30:CD:03:F1:DC:41:1E:C4:93:C6:97:13:CA:D4:FA:60:2A
            X509v3 Authority Key Identifier: 
                keyid:28:F2:FD:30:CD:03:F1:DC:41:1E:C4:93:C6:97:13:CA:D4:FA:60:2A

            X509v3 Basic Constraints: 
                CA:TRUE
    Signature Algorithm: sha256WithRSAEncryption
         62:9e:2c:f4:05:3e:01:39:37:91:17:eb:c1:07:4f:a0:08:ea:
         d4:04:b4:cd:45:3e:19:69:df:98:f3:f4:d4:d6:00:c5:06:56:
         c4:69:7b:9c:bb:94:c7:ce:20:4d:77:59:2d:0c:af:ea:fe:24:
         49:17:1f:36:41:30:50:6b:d2:09:5d:3c:02:26:42:ff:be:7c:
         9f:20:b5:12:a3:74:86:bc:13:12:95:d4:62:3c:9d:e2:89:ff:
         d9:b9:db:93:79:06:75:65:56:81:b9:81:ca:5f:49:ba:c3:56:
         68:4a:39:c4:12:6d:8e:4c:a8:a4:7d:5e:14:65:48:c8:94:ac:
         c0:6a:83:57:e8:71:14:e1:e1:97:8e:12:7d:d6:3b:19:33:3b:
         d2:43:63:50:f1:d9:15:1e:f6:46:d0:34:4a:8d:a9:52:fa:f9:
         28:d0:a0:5a:6b:4f:89:f8:a7:0e:47:ff:49:50:01:a3:7c:d7:
         bf:63:3c:be:d8:95:3a:5b:b7:68:ca:55:49:b8:28:86:21:86:
         80:ad:c6:9c:c0:7e:41:1e:d5:02:eb:99:88:45:90:a8:f6:1a:
         24:79:31:30:19:cc:28:27:e5:44:09:fa:e5:95:7b:bc:ee:66:
         67:38:4b:15:de:6e:bb:ca:6f:8c:d8:36:cc:e9:c6:96:62:a2:
         5e:1a:37:27
-----BEGIN CERTIFICATE-----
MIIENzCCAx+gAwIBAgIJAOYfYfw7NCOcMA0GCSqGSIb3DQEBCwUAMIGxMQswCQYD
VQQGEwJVUzERMA8GA1UECAwITWFyeWxhbmQxFDASBgNVBAcMC0ZvcmVzdCBIaWxs
MScwJQYDVQQKDB5UaGUgQXBhY2hlIFNvZnR3YXJlIEZvdW5kYXRpb24xFjAUBgNV
BAsMDUFwYWNoZSBUaHJpZnQxEjAQBgNVBAMMCWxvY2FsaG9zdDEkMCIGCSqGSIb3
DQEJARYVZGV2QHRocmlmdC5hcGFjaGUub3JnMB4XDTE5MTAwODA4NTgwM1oXDTQ5
MTIyOTA4NTgwNlowgbExCzAJBgNVBAYTAlVTMREwDwYDVQQIDAhNYXJ5bGFuZDEU
MBIGA1UEBwwLRm9yZXN0IEhpbGwxJzAlBgNVBAoMHlRoZSBBcGFjaGUgU29mdHdh
cmUgRm91bmRhdGlvbjEWMBQGA1UECwwNQXBhY2hlIFRocmlmdDESMBAGA1UEAwwJ
bG9jYWxob3N0MSQwIgYJKoZIhvcNAQkBFhVkZXZAdGhyaWZ0LmFwYWNoZS5vcmcw
ggEiMA0GCSqGSIb3DQEBAQUAA4IBDwAwggEKAoIBAQCqE9TE9wEXp5LRtLQVDSGQ
GV78+7ZtP/I/ZaJ6Q6ZGlfxDFvZjFF73seNhAvlKlYm/jflIHYLnNOCySN8I2Xw6
L9MbC+jvwkEKfQo4eDoxZnOZjNF5J1/lZtBeOowMkhhzBMH1Rds351/HjKNg6ZKg
2Cldd0j7HbDtEixOLgLbPRpBcaYrLrNMasf3Hal+x8/b8ue28x93HSQBGmZmMIUw
AinEu/fNP4lLGl/0kZb76TnyRpYSPYojtS6CnkH+QLYnsRREXJYwD1Xku62LipkX
wCkRTnZ5nUsDMX6FPKgjQFQCWDXG/N096+PRUQAChhrXsJ+gF3NqWtDmtrhVQF4n
AgMBAAGjUDBOMB0GA1UdDgQWBBQo8v0wzQPx3EEexJPGlxPK1PpgKjAfBgNVHSME
GDAWgBQo8v0wzQPx3EEexJPGlxPK1PpgKjAMBgNVHRMEBTADAQH/MA0GCSqGSIb3
DQEBCwUAA4IBAQBiniz0BT4BOTeRF+vBB0+gCOrUBLTNRT4Zad+Y8/TU1gDFBlbE
aXucu5THziBNd1ktDK/q/iRJFx82QTBQa9IJXTwCJkL/vnyfILUSo3SGvBMSldRi
PJ3iif/ZuduTeQZ1ZVaBuYHKX0m6w1ZoSjnEEm2OTKikfV4UZUjIlKzAaoNX6HEU
4eGXjhJ91jsZMzvSQ2NQ8dkVHvZG0DRKjalS+vko0KBaa0+J+KcOR/9JUAGjfNe/
Yzy+2JU6W7doylVJuCiGIYaArcacwH5BHtUC65mIRZCo9hokeTEwGcwoJ+VECfrl
lXu87mZnOEsV3m67ym+M2DbM6caWYqJeGjcn
-----END CERTIFICATE-----
